; Function Attrs: alwaysinline norecurse nounwind ssp uwtable
define internal void @"_ZN6open3d4core15ParallelForCPU_IZZZNS_1t8geometry6kernel10pointcloud36OrientNormalsToAlignWithDirectionCPUERNS0_6TensorERKS6_ENK3$_0clEvENKUlvE_clEvEUllE_EEvRKNS0_6DeviceElRKT_.omp_outlined"(ptr noalias noundef readonly captures(none) %0, ptr noalias readnone captures(none) %1, ptr noundef nonnull readonly align 8 captures(none) dereferenceable(8) %2, ptr noundef nonnull readonly align 8 captures(none) dereferenceable(16) %3) #25 personality ptr @__gxx_personality_v0 {
  %5 = alloca i64, align 8
  %6 = alloca i64, align 8
  %7 = alloca i64, align 8
  %8 = alloca i32, align 4
  %9 = load i64, ptr %2, align 8, !tbaa !8
  %10 = icmp sgt i64 %9, 0
  br i1 %10, label %11, label %48

11:                                               ; preds = %4
  %12 = add nsw i64 %9, -1
  call void @llvm.lifetime.start.p0(i64 8, ptr nonnull %5) #26
  store i64 0, ptr %5, align 8, !tbaa !8
  call void @llvm.lifetime.start.p0(i64 8, ptr nonnull %6) #26
  store i64 %12, ptr %6, align 8, !tbaa !8
  call void @llvm.lifetime.start.p0(i64 8, ptr nonnull %7) #26
  store i64 1, ptr %7, align 8, !tbaa !8
  call void @llvm.lifetime.start.p0(i64 4, ptr nonnull %8) #26
  store i32 0, ptr %8, align 4, !tbaa !34
  %13 = load i32, ptr %0, align 4, !tbaa !34
  call void @__kmpc_for_static_init_8(ptr nonnull @1, i32 %13, i32 34, ptr nonnull %8, ptr nonnull %5, ptr nonnull %6, ptr nonnull %7, i64 1, i64 1)
  %14 = load i64, ptr %6, align 8, !tbaa !8
  %15 = call i64 @llvm.smin.i64(i64 %14, i64 %12)
  store i64 %15, ptr %6, align 8, !tbaa !8
  %16 = load i64, ptr %5, align 8, !tbaa !8
  %.not14 = icmp sgt i64 %16, %15
  br i1 %.not14, label %._crit_edge, label %.lr.ph

.lr.ph:                                           ; preds = %11
  %.val = load ptr, ptr %3, align 8, !tbaa !872
  %17 = getelementptr inbounds nuw i8, ptr %3, i64 8
  br label %18

18:                                               ; preds = %.lr.ph, %"_ZZZZN6open3d1t8geometry6kernel10pointcloud36OrientNormalsToAlignWithDirectionCPUERNS_4core6TensorERKS5_ENK3$_0clEvENKUlvE_clEvENKUllE_clEl.exit"
  %.015 = phi i64 [ %16, %.lr.ph ], [ %47, %"_ZZZZN6open3d1t8geometry6kernel10pointcloud36OrientNormalsToAlignWithDirectionCPUERNS_4core6TensorERKS5_ENK3$_0clEvENKUlvE_clEvENKUllE_clEl.exit" ]
  %.val13 = load ptr, ptr %17, align 8
  %.idx.i = mul nsw i64 %.015, 12
  %19 = getelementptr inbounds i8, ptr %.val, i64 %.idx.i
  %20 = load float, ptr %19, align 4, !tbaa !4
  %21 = getelementptr inbounds nuw i8, ptr %19, i64 4
  %22 = load float, ptr %21, align 4, !tbaa !4
  %23 = fmul float %22, %22
  %24 = call float @llvm.fmuladd.f32(float %20, float %20, float %23)
  %25 = getelementptr inbounds nuw i8, ptr %19, i64 8
  %26 = load float, ptr %25, align 4, !tbaa !4
  %27 = call float @llvm.fmuladd.f32(float %26, float %26, float %24)
  %28 = fcmp oeq float %27, 0.000000e+00
  %29 = load float, ptr %.val13, align 4, !tbaa !4
  %30 = getelementptr inbounds nuw i8, ptr %.val13, i64 8
  br i1 %28, label %31, label %35

31:                                               ; preds = %18
  store float %29, ptr %19, align 4, !tbaa !4
  %32 = getelementptr inbounds nuw i8, ptr %.val13, i64 4
  %33 = load float, ptr %32, align 4, !tbaa !4
  store float %33, ptr %21, align 4, !tbaa !4
  %34 = load float, ptr %30, align 4, !tbaa !4
  br label %.sink.split.i

35:                                               ; preds = %18
  %36 = getelementptr inbounds nuw i8, ptr %.val13, i64 4
  %37 = load float, ptr %36, align 4, !tbaa !4
  %38 = fmul float %22, %37
  %39 = call float @llvm.fmuladd.f32(float %20, float %29, float %38)
  %40 = load float, ptr %30, align 4, !tbaa !4
  %41 = call noundef float @llvm.fmuladd.f32(float %26, float %40, float %39)
  %42 = fcmp olt float %41, 0.000000e+00
  br i1 %42, label %43, label %"_ZZZZN6open3d1t8geometry6kernel10pointcloud36OrientNormalsToAlignWithDirectionCPUERNS_4core6TensorERKS5_ENK3$_0clEvENKUlvE_clEvENKUllE_clEl.exit"

43:                                               ; preds = %35
  %44 = fneg float %20
  store float %44, ptr %19, align 4, !tbaa !4
  %45 = fneg float %22
  store float %45, ptr %21, align 4, !tbaa !4
  %46 = fneg float %26
  br label %.sink.split.i

.sink.split.i:                                    ; preds = %43, %31
  %.sink.i = phi float [ %46, %43 ], [ %34, %31 ]
  store float %.sink.i, ptr %25, align 4, !tbaa !4
  br label %"_ZZZZN6open3d1t8geometry6kernel10pointcloud36OrientNormalsToAlignWithDirectionCPUERNS_4core6TensorERKS5_ENK3$_0clEvENKUlvE_clEvENKUllE_clEl.exit"

"_ZZZZN6open3d1t8geometry6kernel10pointcloud36OrientNormalsToAlignWithDirectionCPUERNS_4core6TensorERKS5_ENK3$_0clEvENKUlvE_clEvENKUllE_clEl.exit": ; preds = %35, %.sink.split.i
  %47 = add i64 %.015, 1
  %exitcond.not = icmp eq i64 %.015, %15
  br i1 %exitcond.not, label %._crit_edge, label %18

._crit_edge:                                      ; preds = %"_ZZZZN6open3d1t8geometry6kernel10pointcloud36OrientNormalsToAlignWithDirectionCPUERNS_4core6TensorERKS5_ENK3$_0clEvENKUlvE_clEvENKUllE_clEl.exit", %11
  call void @__kmpc_for_static_fini(ptr nonnull @1, i32 %13)
  call void @llvm.lifetime.end.p0(i64 4, ptr nonnull %8) #26
  call void @llvm.lifetime.end.p0(i64 8, ptr nonnull %7) #26
  call void @llvm.lifetime.end.p0(i64 8, ptr nonnull %6) #26
  call void @llvm.lifetime.end.p0(i64 8, ptr nonnull %5) #26
  br label %48

48:                                               ; preds = %._crit_edge, %4
  ret void
}